target datalayout = "e-m:e-p270:32:32-p271:32:32-p272:64:64-i64:64-i128:128-f80:128-n8:16:32:64-S128"
target triple = "x86_64-unknown-linux-gnu"

%"class.std::__cxx11::basic_string" = type { %"struct.std::__cxx11::basic_string<char>::_Alloc_hider", i64, %union.anon }
%"struct.std::__cxx11::basic_string<char>::_Alloc_hider" = type { ptr }
%union.anon = type { i64, [8 x i8] }
%"class.std::linear_congruential_engine" = type { i64 }
%"class.std::random_device" = type { %union.anon.3 }
%union.anon.3 = type { %"class.std::mersenne_twister_engine" }
%"class.std::mersenne_twister_engine" = type { [624 x i64], i64 }
%"class.std::uniform_int_distribution" = type { %"struct.std::uniform_int_distribution<>::param_type" }
%"struct.std::uniform_int_distribution<>::param_type" = type { i32, i32 }

@_ZZ13random_stringB5cxx11mE8alphanum = internal constant [63 x i8] c"0123456789ABCDEFGHIJKLMNOPQRSTUVWXYZabcdefghijklmnopqrstuvwxyz\00", align 16

; Function Attrs: mustprogress nounwind uwtable
define linkonce_odr dso_local noundef i64 @_ZNSt8__detail4_ModImLm2147483647ELm1ELm0ELb1ELb1EE6__calcEm(i64 noundef %__x) #5 comdat align 2 {
entry:
  %__x.addr = alloca i64, align 8
  %__res = alloca i64, align 8
  store i64 %__x, ptr %__x.addr, align 8
  %0 = load i64, ptr %__x.addr, align 8
  %mul = mul i64 1, %0
  %add = add i64 %mul, 0
  store i64 %add, ptr %__res, align 8
  %1 = load i64, ptr %__res, align 8
  %rem = urem i64 %1, 2147483647
  store i64 %rem, ptr %__res, align 8
  %2 = load i64, ptr %__res, align 8
  ret i64 %2
}

; Function Attrs: mustprogress uwtable
define linkonce_odr dso_local noundef i64 @_ZNSt8__detail5__modImTnT_Lm2147483647ETnS1_Lm1ETnS1_Lm0EEES1_S1_(i64 noundef %__x) #4 comdat {
entry:
  %__x.addr = alloca i64, align 8
  %__a1 = alloca i64, align 8
  store i64 %__x, ptr %__x.addr, align 8
  store i64 1, ptr %__a1, align 8
  %0 = load i64, ptr %__x.addr, align 8
  %call = call noundef i64 @_ZNSt8__detail4_ModImLm2147483647ELm1ELm0ELb1ELb1EE6__calcEm(i64 noundef %0)
  ret i64 %call
}

; Function Attrs: mustprogress nounwind uwtable
define linkonce_odr dso_local void @_ZNSt24uniform_int_distributionIiE10param_typeC2Eii(ptr noundef nonnull align 4 dereferenceable(8) %this, i32 noundef %__a, i32 noundef %__b) unnamed_addr #5 comdat align 2 {
entry:
  %this.addr = alloca ptr, align 8
  %__a.addr = alloca i32, align 4
  %__b.addr = alloca i32, align 4
  store ptr %this, ptr %this.addr, align 8
  store i32 %__a, ptr %__a.addr, align 4
  store i32 %__b, ptr %__b.addr, align 4
  %this1 = load ptr, ptr %this.addr, align 8
  %_M_a = getelementptr inbounds %"struct.std::uniform_int_distribution<>::param_type", ptr %this1, i32 0, i32 0
  %0 = load i32, ptr %__a.addr, align 4
  store i32 %0, ptr %_M_a, align 4
  %_M_b = getelementptr inbounds %"struct.std::uniform_int_distribution<>::param_type", ptr %this1, i32 0, i32 1
  %1 = load i32, ptr %__b.addr, align 4
  store i32 %1, ptr %_M_b, align 4
  br label %do.body

do.body:                                          ; preds = %entry
  br label %do.end

do.end:                                           ; preds = %do.body
  ret void
}

; Function Attrs: mustprogress uwtable
define linkonce_odr dso_local void @_ZNSt26linear_congruential_engineImLm16807ELm0ELm2147483647EE4seedEm(ptr noundef nonnull align 8 dereferenceable(8) %this, i64 noundef %__s) #4 comdat align 2 {
entry:
  %this.addr = alloca ptr, align 8
  %__s.addr = alloca i64, align 8
  store ptr %this, ptr %this.addr, align 8
  store i64 %__s, ptr %__s.addr, align 8
  %this1 = load ptr, ptr %this.addr, align 8
  %call = call noundef i64 @_ZNSt8__detail5__modImTnT_Lm2147483647ETnS1_Lm1ETnS1_Lm0EEES1_S1_(i64 noundef 0)
  %cmp = icmp eq i64 %call, 0
  br i1 %cmp, label %land.lhs.true, label %if.else

land.lhs.true:                                    ; preds = %entry
  %0 = load i64, ptr %__s.addr, align 8
  %call2 = call noundef i64 @_ZNSt8__detail5__modImTnT_Lm2147483647ETnS1_Lm1ETnS1_Lm0EEES1_S1_(i64 noundef %0)
  %cmp3 = icmp eq i64 %call2, 0
  br i1 %cmp3, label %if.then, label %if.else

if.then:                                          ; preds = %land.lhs.true
  %_M_x = getelementptr inbounds %"class.std::linear_congruential_engine", ptr %this1, i32 0, i32 0
  store i64 1, ptr %_M_x, align 8
  br label %if.end

if.else:                                          ; preds = %land.lhs.true, %entry
  %1 = load i64, ptr %__s.addr, align 8
  %call4 = call noundef i64 @_ZNSt8__detail5__modImTnT_Lm2147483647ETnS1_Lm1ETnS1_Lm0EEES1_S1_(i64 noundef %1)
  %_M_x5 = getelementptr inbounds %"class.std::linear_congruential_engine", ptr %this1, i32 0, i32 0
  store i64 %call4, ptr %_M_x5, align 8
  br label %if.end

if.end:                                           ; preds = %if.else, %if.then
  ret void
}

; Function Attrs: mustprogress uwtable
define linkonce_odr dso_local noundef i32 @_ZNSt24uniform_int_distributionIiEclISt26linear_congruential_engineImLm16807ELm0ELm2147483647EEEEiRT_(ptr noundef nonnull align 4 dereferenceable(8) %this, ptr noundef nonnull align 8 dereferenceable(8) %__urng) #4 comdat align 2 {
entry:
  %this.addr = alloca ptr, align 8
  %__urng.addr = alloca ptr, align 8
  store ptr %this, ptr %this.addr, align 8
  store ptr %__urng, ptr %__urng.addr, align 8
  %this1 = load ptr, ptr %this.addr, align 8
  %0 = load ptr, ptr %__urng.addr, align 8
  %_M_param = getelementptr inbounds %"class.std::uniform_int_distribution", ptr %this1, i32 0, i32 0
  %call = call noundef i32 @_ZNSt24uniform_int_distributionIiEclISt26linear_congruential_engineImLm16807ELm0ELm2147483647EEEEiRT_RKNS0_10param_typeE(ptr noundef nonnull align 4 dereferenceable(8) %this1, ptr noundef nonnull align 8 dereferenceable(8) %0, ptr noundef nonnull align 4 dereferenceable(8) %_M_param)
  ret i32 %call
}

; Function Attrs: mustprogress uwtable
define linkonce_odr dso_local void @_ZNSt24uniform_int_distributionIiEC2Eii(ptr noundef nonnull align 4 dereferenceable(8) %this, i32 noundef %__a, i32 noundef %__b) unnamed_addr #4 comdat align 2 {
entry:
  %this.addr = alloca ptr, align 8
  %__a.addr = alloca i32, align 4
  %__b.addr = alloca i32, align 4
  store ptr %this, ptr %this.addr, align 8
  store i32 %__a, ptr %__a.addr, align 4
  store i32 %__b, ptr %__b.addr, align 4
  %this1 = load ptr, ptr %this.addr, align 8
  %_M_param = getelementptr inbounds %"class.std::uniform_int_distribution", ptr %this1, i32 0, i32 0
  %0 = load i32, ptr %__a.addr, align 4
  %1 = load i32, ptr %__b.addr, align 4
  call void @_ZNSt24uniform_int_distributionIiE10param_typeC2Eii(ptr noundef nonnull align 4 dereferenceable(8) %_M_param, i32 noundef %0, i32 noundef %1)
  ret void
}

; Function Attrs: mustprogress nounwind uwtable
define linkonce_odr dso_local void @_ZNSt13random_deviceD2Ev(ptr noundef nonnull align 8 dereferenceable(5000) %this) unnamed_addr #5 comdat align 2 personality ptr @__gxx_personality_v0 {
entry:
  %this.addr = alloca ptr, align 8
  store ptr %this, ptr %this.addr, align 8
  %this1 = load ptr, ptr %this.addr, align 8
  invoke void @_ZNSt13random_device7_M_finiEv(ptr noundef nonnull align 8 dereferenceable(5000) %this1)
          to label %invoke.cont unwind label %terminate.lpad

invoke.cont:                                      ; preds = %entry
  ret void

terminate.lpad:                                   ; preds = %entry
  %0 = landingpad { ptr, i32 }
          catch ptr null
  %1 = extractvalue { ptr, i32 } %0, 0
  call void @__clang_call_terminate(ptr %1) #23
  unreachable
}

; Function Attrs: mustprogress uwtable
define linkonce_odr dso_local void @_ZNSt26linear_congruential_engineImLm16807ELm0ELm2147483647EEC2Em(ptr noundef nonnull align 8 dereferenceable(8) %this, i64 noundef %__s) unnamed_addr #4 comdat align 2 {
entry:
  %this.addr = alloca ptr, align 8
  %__s.addr = alloca i64, align 8
  store ptr %this, ptr %this.addr, align 8
  store i64 %__s, ptr %__s.addr, align 8
  %this1 = load ptr, ptr %this.addr, align 8
  %0 = load i64, ptr %__s.addr, align 8
  call void @_ZNSt26linear_congruential_engineImLm16807ELm0ELm2147483647EE4seedEm(ptr noundef nonnull align 8 dereferenceable(8) %this1, i64 noundef %0)
  ret void
}

; Function Attrs: mustprogress uwtable
define linkonce_odr dso_local noundef i32 @_ZNSt13random_deviceclEv(ptr noundef nonnull align 8 dereferenceable(5000) %this) #4 comdat align 2 {
entry:
  %this.addr = alloca ptr, align 8
  store ptr %this, ptr %this.addr, align 8
  %this1 = load ptr, ptr %this.addr, align 8
  %call = call noundef i32 @_ZNSt13random_device9_M_getvalEv(ptr noundef nonnull align 8 dereferenceable(5000) %this1)
  ret i32 %call
}

; Function Attrs: mustprogress uwtable
define dso_local void @_Z13random_stringB5cxx11m(ptr noalias sret(%"class.std::__cxx11::basic_string") align 8 %agg.result, i64 noundef %len) #4 personality ptr @__gxx_personality_v0 {
entry:
  %result.ptr = alloca ptr, align 8
  %len.addr = alloca i64, align 8
  %nrvo = alloca i1, align 1
  %eng = alloca %"class.std::linear_congruential_engine", align 8
  %ref.tmp = alloca %"class.std::random_device", align 8
  %exn.slot = alloca ptr, align 8
  %ehselector.slot = alloca i32, align 4
  %dist = alloca %"class.std::uniform_int_distribution", align 4
  %i = alloca i64, align 8
  store ptr %agg.result, ptr %result.ptr, align 8
  store i64 %len, ptr %len.addr, align 8
  store i1 false, ptr %nrvo, align 1
  call void @_ZNSt7__cxx1112basic_stringIcSt11char_traitsIcESaIcEEC1Ev(ptr noundef nonnull align 8 dereferenceable(32) %agg.result) #3
  invoke void @_ZNSt13random_deviceC2Ev(ptr noundef nonnull align 8 dereferenceable(5000) %ref.tmp)
          to label %invoke.cont unwind label %lpad

invoke.cont:                                      ; preds = %entry
  %call = invoke noundef i32 @_ZNSt13random_deviceclEv(ptr noundef nonnull align 8 dereferenceable(5000) %ref.tmp)
          to label %invoke.cont2 unwind label %lpad1

invoke.cont2:                                     ; preds = %invoke.cont
  %conv = zext i32 %call to i64
  invoke void @_ZNSt26linear_congruential_engineImLm16807ELm0ELm2147483647EEC2Em(ptr noundef nonnull align 8 dereferenceable(8) %eng, i64 noundef %conv)
          to label %invoke.cont3 unwind label %lpad1

invoke.cont3:                                     ; preds = %invoke.cont2
  call void @_ZNSt13random_deviceD2Ev(ptr noundef nonnull align 8 dereferenceable(5000) %ref.tmp) #3
  invoke void @_ZNSt24uniform_int_distributionIiEC2Eii(ptr noundef nonnull align 4 dereferenceable(8) %dist, i32 noundef 1, i32 noundef 100000)
          to label %invoke.cont4 unwind label %lpad

invoke.cont4:                                     ; preds = %invoke.cont3
  %0 = load i64, ptr %len.addr, align 8
  invoke void @_ZNSt7__cxx1112basic_stringIcSt11char_traitsIcESaIcEE7reserveEm(ptr noundef nonnull align 8 dereferenceable(32) %agg.result, i64 noundef %0)
          to label %invoke.cont5 unwind label %lpad

invoke.cont5:                                     ; preds = %invoke.cont4
  store i64 0, ptr %i, align 8
  br label %for.cond

for.cond:                                         ; preds = %for.inc, %invoke.cont5
  %1 = load i64, ptr %i, align 8
  %2 = load i64, ptr %len.addr, align 8
  %cmp = icmp ult i64 %1, %2
  br i1 %cmp, label %for.body, label %for.end

for.body:                                         ; preds = %for.cond
  %call7 = invoke noundef i32 @_ZNSt24uniform_int_distributionIiEclISt26linear_congruential_engineImLm16807ELm0ELm2147483647EEEEiRT_(ptr noundef nonnull align 4 dereferenceable(8) %dist, ptr noundef nonnull align 8 dereferenceable(8) %eng)
          to label %invoke.cont6 unwind label %lpad

invoke.cont6:                                     ; preds = %for.body
  %conv8 = sext i32 %call7 to i64
  %rem = urem i64 %conv8, 62
  %arrayidx = getelementptr inbounds [63 x i8], ptr @_ZZ13random_stringB5cxx11mE8alphanum, i64 0, i64 %rem
  %3 = load i8, ptr %arrayidx, align 1
  %call10 = invoke noundef nonnull align 8 dereferenceable(32) ptr @_ZNSt7__cxx1112basic_stringIcSt11char_traitsIcESaIcEEpLEc(ptr noundef nonnull align 8 dereferenceable(32) %agg.result, i8 noundef signext %3)
          to label %invoke.cont9 unwind label %lpad

invoke.cont9:                                     ; preds = %invoke.cont6
  br label %for.inc

for.inc:                                          ; preds = %invoke.cont9
  %4 = load i64, ptr %i, align 8
  %inc = add i64 %4, 1
  store i64 %inc, ptr %i, align 8
  br label %for.cond, !llvm.loop !8

lpad:                                             ; preds = %invoke.cont6, %for.body, %invoke.cont4, %invoke.cont3, %entry
  %5 = landingpad { ptr, i32 }
          cleanup
  %6 = extractvalue { ptr, i32 } %5, 0
  store ptr %6, ptr %exn.slot, align 8
  %7 = extractvalue { ptr, i32 } %5, 1
  store i32 %7, ptr %ehselector.slot, align 4
  br label %ehcleanup

lpad1:                                            ; preds = %invoke.cont2, %invoke.cont
  %8 = landingpad { ptr, i32 }
          cleanup
  %9 = extractvalue { ptr, i32 } %8, 0
  store ptr %9, ptr %exn.slot, align 8
  %10 = extractvalue { ptr, i32 } %8, 1
  store i32 %10, ptr %ehselector.slot, align 4
  call void @_ZNSt13random_deviceD2Ev(ptr noundef nonnull align 8 dereferenceable(5000) %ref.tmp) #3
  br label %ehcleanup

for.end:                                          ; preds = %for.cond
  store i1 true, ptr %nrvo, align 1
  %nrvo.val = load i1, ptr %nrvo, align 1
  br i1 %nrvo.val, label %nrvo.skipdtor, label %nrvo.unused

nrvo.unused:                                      ; preds = %for.end
  call void @_ZNSt7__cxx1112basic_stringIcSt11char_traitsIcESaIcEED1Ev(ptr noundef nonnull align 8 dereferenceable(32) %agg.result) #3
  br label %nrvo.skipdtor

nrvo.skipdtor:                                    ; preds = %nrvo.unused, %for.end
  ret void

ehcleanup:                                        ; preds = %lpad1, %lpad
  call void @_ZNSt7__cxx1112basic_stringIcSt11char_traitsIcESaIcEED1Ev(ptr noundef nonnull align 8 dereferenceable(32) %agg.result) #3
  br label %eh.resume

eh.resume:                                        ; preds = %ehcleanup
  %exn = load ptr, ptr %exn.slot, align 8
  %sel = load i32, ptr %ehselector.slot, align 4
  %lpad.val = insertvalue { ptr, i32 } poison, ptr %exn, 0
  %lpad.val11 = insertvalue { ptr, i32 } %lpad.val, i32 %sel, 1
  resume { ptr, i32 } %lpad.val11
}