; Function Attrs: mustprogress uwtable
define dso_local void @_Z13random_stringB5cxx11m(ptr noalias nonnull sret(%"class.std::__cxx11::basic_string") align 8 %agg.result, i64 noundef %len) local_unnamed_addr #5 personality ptr @__gxx_personality_v0 {
entry:
  %eng = alloca %"class.std::linear_congruential_engine", align 8
  %ref.tmp = alloca %"class.std::random_device", align 8
  %dist = alloca %"class.std::uniform_int_distribution", align 4
  tail call void @_ZNSt7__cxx1112basic_stringIcSt11char_traitsIcESaIcEEC1Ev(ptr noundef nonnull align 8 dereferenceable(32) %agg.result) #27
  invoke void @_ZNSt13random_deviceC2Ev(ptr noundef nonnull align 8 dereferenceable(5000) %ref.tmp)
          to label %invoke.cont unwind label %lpad.loopexit.split-lp

invoke.cont:                                      ; preds = %entry
  %call.i4 = invoke noundef i32 @_ZNSt13random_device9_M_getvalEv(ptr noundef nonnull align 8 dereferenceable(5000) %ref.tmp)
          to label %invoke.cont3 unwind label %lpad1

invoke.cont3:                                     ; preds = %invoke.cont
  %rem.i.i.i.i8 = urem i32 %call.i4, 2147483647
  %0 = call i32 @llvm.umax.i32(i32 %rem.i.i.i.i8, i32 1)
  %storemerge.i.i = zext nneg i32 %0 to i64
  store i64 %storemerge.i.i, ptr %eng, align 8
  invoke void @_ZNSt13random_device7_M_finiEv(ptr noundef nonnull align 8 dereferenceable(5000) %ref.tmp)
          to label %invoke.cont4 unwind label %terminate.lpad.i

terminate.lpad.i:                                 ; preds = %invoke.cont3
  %1 = landingpad { ptr, i32 }
          catch ptr null
  %2 = extractvalue { ptr, i32 } %1, 0
  call void @__clang_call_terminate(ptr %2) #30
  unreachable

invoke.cont4:                                     ; preds = %invoke.cont3
  store i32 1, ptr %dist, align 4
  %_M_b.i.i = getelementptr inbounds i8, ptr %dist, i64 4
  store i32 100000, ptr %_M_b.i.i, align 4
  invoke void @_ZNSt7__cxx1112basic_stringIcSt11char_traitsIcESaIcEE7reserveEm(ptr noundef nonnull align 8 dereferenceable(32) %agg.result, i64 noundef %len)
          to label %for.cond.preheader unwind label %lpad.loopexit.split-lp

for.cond.preheader:                               ; preds = %invoke.cont4
  %cmp11.not = icmp eq i64 %len, 0
  br i1 %cmp11.not, label %nrvo.skipdtor, label %for.body

for.body:                                         ; preds = %for.cond.preheader, %for.inc
  %i.012 = phi i64 [ %inc, %for.inc ], [ 0, %for.cond.preheader ]
  %call.i5 = invoke noundef i32 @_ZNSt24uniform_int_distributionIiEclISt26linear_congruential_engineImLm16807ELm0ELm2147483647EEEEiRT_RKNS0_10param_typeE(ptr noundef nonnull align 4 dereferenceable(8) %dist, ptr noundef nonnull align 8 dereferenceable(8) %eng, ptr noundef nonnull align 4 dereferenceable(8) %dist)
          to label %invoke.cont6 unwind label %lpad.loopexit

invoke.cont6:                                     ; preds = %for.body
  %conv8 = sext i32 %call.i5 to i64
  %rem = urem i64 %conv8, 62
  %arrayidx = getelementptr inbounds [63 x i8], ptr @_ZZ13random_stringB5cxx11mE8alphanum, i64 0, i64 %rem
  %3 = load i8, ptr %arrayidx, align 1
  %call10 = invoke noundef nonnull align 8 dereferenceable(32) ptr @_ZNSt7__cxx1112basic_stringIcSt11char_traitsIcESaIcEEpLEc(ptr noundef nonnull align 8 dereferenceable(32) %agg.result, i8 noundef signext %3)
          to label %for.inc unwind label %lpad.loopexit

for.inc:                                          ; preds = %invoke.cont6
  %inc = add nuw i64 %i.012, 1
  %exitcond.not = icmp eq i64 %inc, %len
  br i1 %exitcond.not, label %nrvo.skipdtor, label %for.body, !llvm.loop !10

lpad.loopexit:                                    ; preds = %invoke.cont6, %for.body
  %lpad.loopexit9 = landingpad { ptr, i32 }
          cleanup
  br label %ehcleanup

lpad.loopexit.split-lp:                           ; preds = %entry, %invoke.cont4
  %lpad.loopexit.split-lp10 = landingpad { ptr, i32 }
          cleanup
  br label %ehcleanup

lpad1:                                            ; preds = %invoke.cont
  %4 = landingpad { ptr, i32 }
          cleanup
  invoke void @_ZNSt13random_device7_M_finiEv(ptr noundef nonnull align 8 dereferenceable(5000) %ref.tmp)
          to label %ehcleanup unwind label %terminate.lpad.i6

terminate.lpad.i6:                                ; preds = %lpad1
  %5 = landingpad { ptr, i32 }
          catch ptr null
  %6 = extractvalue { ptr, i32 } %5, 0
  call void @__clang_call_terminate(ptr %6) #30
  unreachable

nrvo.skipdtor:                                    ; preds = %for.inc, %for.cond.preheader
  ret void

ehcleanup:                                        ; preds = %lpad.loopexit, %lpad.loopexit.split-lp, %lpad1
  %.pn = phi { ptr, i32 } [ %4, %lpad1 ], [ %lpad.loopexit9, %lpad.loopexit ], [ %lpad.loopexit.split-lp10, %lpad.loopexit.split-lp ]
  call void @_ZNSt7__cxx1112basic_stringIcSt11char_traitsIcESaIcEED1Ev(ptr noundef nonnull align 8 dereferenceable(32) %agg.result) #27
  resume { ptr, i32 } %.pn
}